; Function Attrs: nounwind uwtable
define dso_local void @ReorderBufferFree(ptr noundef readonly captures(none) %0) local_unnamed_addr #0 {
  %2 = getelementptr inbounds nuw i8, ptr %0, i64 240
  %3 = load ptr, ptr %2, align 8
  tail call void @MemoryContextDelete(ptr noundef %3) #19
  %4 = load ptr, ptr @MyReplicationSlot, align 8
  %5 = getelementptr inbounds nuw i8, ptr %4, i64 24
  tail call fastcc void @ReorderBufferCleanupSerializedTXNs(ptr noundef nonnull %5)
  ret void
}